Certificate:
    Data:
        Version: 3 (0x2)
        Serial Number: 1 (0x1)
    Signature Algorithm: sha256WithRSAEncryption
        Issuer: C=CN, ST=sichuan, L=chengdu, O=Huawei, OU=Storage, CN=RootCA
        Validity
            Not Before: Aug  6 02:18:06 2021 GMT
            Not After : Aug  6 02:18:06 2022 GMT
        Subject: C=CN, ST=SiChuan, O=Huawei, OU=Storage, CN=6EB86284D577121E5E8D3E98
        Subject Public Key Info:
            Public Key Algorithm: rsaEncryption
                Public-Key: (2048 bit)
                Modulus:
                    00:a6:a6:a9:fa:a6:b3:e7:89:40:0d:49:65:9b:e5:
                    84:27:54:8f:c4:ce:c6:b2:35:06:d3:c5:fe:26:c0:
                    fb:dc:ab:8e:88:a5:e1:d1:ca:1b:cf:5c:f7:94:fb:
                    b4:48:12:30:d8:02:eb:15:85:3b:7c:4f:5e:d7:d1:
                    78:13:0e:7f:69:89:6b:bc:18:dd:fb:07:b0:2c:b4:
                    c5:53:73:ec:f4:1a:04:6b:a2:52:e7:6d:84:11:5a:
                    65:99:4f:28:03:76:d5:e0:40:44:dd:f2:90:47:47:
                    46:6f:15:d0:7d:49:e3:8f:cd:12:f0:e2:84:b4:6f:
                    92:01:0a:a0:80:1d:af:2e:ed:85:37:4f:34:b2:38:
                    af:07:db:ed:34:eb:28:8e:ff:ea:5a:dc:8c:5c:56:
                    c0:28:52:89:80:ca:cb:6b:f3:9e:84:29:19:09:f2:
                    e9:bf:ca:1d:bf:2a:54:36:6c:f4:5b:25:20:2a:7a:
                    79:c3:d4:0f:4a:23:85:f9:e1:00:11:3a:33:44:33:
                    6d:00:f5:31:c6:b6:d4:54:43:ae:65:10:a3:3a:c6:
                    68:31:1e:35:6c:6b:4b:4b:97:a8:6a:b9:f9:e9:23:
                    8a:43:b7:e3:08:ab:d2:2c:85:21:df:1b:1c:53:61:
                    d9:59:0e:4d:31:eb:d9:2f:89:0f:59:bb:5e:f2:34:
                    44:1f
                Exponent: 65537 (0x10001)
        X509v3 extensions:
            X509v3 Basic Constraints: 
                CA:FALSE
            Netscape Comment: 
                OpenSSL Generated Certificate
            X509v3 Subject Key Identifier: 
                05:BF:1F:72:4F:11:06:38:7F:48:BE:5B:98:7E:5D:2F:77:7D:27:EA
            X509v3 Authority Key Identifier: 
                keyid:50:21:2F:08:BE:90:73:F7:8C:BE:1D:51:52:58:19:44:B1:5D:40:46

    Signature Algorithm: sha256WithRSAEncryption
         7a:03:00:26:51:33:d6:e5:d2:fd:0e:92:a3:3c:37:11:8a:9f:
         5a:4b:4b:a5:ca:91:16:e8:67:55:53:ce:28:e4:79:84:40:59:
         e4:61:af:10:47:5f:e7:da:6e:88:16:37:5b:07:76:0c:3f:bf:
         d5:be:65:0a:f0:7d:72:85:98:e4:c9:eb:15:41:1e:e0:ea:0c:
         bd:59:27:c5:a6:ef:ad:ee:92:88:5a:26:35:d8:8e:29:b5:98:
         31:58:bc:54:6c:f0:47:d5:e3:aa:1f:8c:0e:d1:d7:2a:60:cd:
         f2:31:b3:28:f8:f7:13:a7:40:42:08:2e:1b:86:42:70:6d:31:
         3f:ff:9a:df:61:87:e3:af:cb:f0:a9:7a:63:2e:b1:e6:c3:85:
         b2:ce:d0:2d:d1:5c:2b:4d:ea:ff:78:29:ba:dc:cb:bd:d2:36:
         ee:8e:ec:e7:27:74:5d:df:0c:28:a9:f0:8a:4f:05:c6:e2:cb:
         b0:e7:e1:82:a7:34:3c:eb:cb:09:ff:f2:df:aa:71:d1:a8:7a:
         17:81:4f:6e:ea:4f:6e:22:79:f6:32:d5:c0:64:b7:8f:c6:32:
         6a:81:04:f1:6e:73:b9:d6:2e:59:4b:da:b0:c8:b7:0f:e3:70:
         2c:a9:fe:8f:17:3d:76:98:e3:eb:db:10:94:34:9f:a4:98:c3:
         21:76:5e:53
-----BEGIN CERTIFICATE-----
MIIDwDCCAqigAwIBAgIBATANBgkqhkiG9w0BAQsFADBlMQswCQYDVQQGEwJDTjEQ
MA4GA1UECAwHc2ljaHVhbjEQMA4GA1UEBwwHY2hlbmdkdTEPMA0GA1UECgwGSHVh
d2VpMRAwDgYDVQQLDAdTdG9yYWdlMQ8wDQYDVQQDDAZSb290Q0EwHhcNMjEwODA2
MDIxODA2WhcNMjIwODA2MDIxODA2WjBlMQswCQYDVQQGEwJDTjEQMA4GA1UECAwH
U2lDaHVhbjEPMA0GA1UECgwGSHVhd2VpMRAwDgYDVQQLDAdTdG9yYWdlMSEwHwYD
VQQDDBg2RUI4NjI4NEQ1NzcxMjFFNUU4RDNFOTgwggEiMA0GCSqGSIb3DQEBAQUA
A4IBDwAwggEKAoIBAQCmpqn6prPniUANSWWb5YQnVI/EzsayNQbTxf4mwPvcq46I
peHRyhvPXPeU+7RIEjDYAusVhTt8T17X0XgTDn9piWu8GN37B7AstMVTc+z0GgRr
olLnbYQRWmWZTygDdtXgQETd8pBHR0ZvFdB9SeOPzRLw4oS0b5IBCqCAHa8u7YU3
TzSyOK8H2+006yiO/+pa3IxcVsAoUomAystr856EKRkJ8um/yh2/KlQ2bPRbJSAq
ennD1A9KI4X54QAROjNEM20A9THGttRUQ65lEKM6xmgxHjVsa0tLl6hqufnpI4pD
t+MIq9IshSHfGxxTYdlZDk0x69kviQ9Zu17yNEQfAgMBAAGjezB5MAkGA1UdEwQC
MAAwLAYJYIZIAYb4QgENBB8WHU9wZW5TU0wgR2VuZXJhdGVkIENlcnRpZmljYXRl
MB0GA1UdDgQWBBQFvx9yTxEGOH9IvluYfl0vd30n6jAfBgNVHSMEGDAWgBRQIS8I
vpBz94y+HVFSWBlEsV1ARjANBgkqhkiG9w0BAQsFAAOCAQEAegMAJlEz1uXS/Q6S
ozw3EYqfWktLpcqRFuhnVVPOKOR5hEBZ5GGvEEdf59puiBY3Wwd2DD+/1b5lCvB9
coWY5MnrFUEe4OoMvVknxabvre6SiFomNdiOKbWYMVi8VGzwR9Xjqh+MDtHXKmDN
8jGzKPj3E6dAQgguG4ZCcG0xP/+a32GH46/L8Kl6Yy6x5sOFss7QLdFcK03q/3gp
utzLvdI27o7s5yd0Xd8MKKnwik8FxuLLsOfhgqc0POvLCf/y36px0ah6F4FPbupP
biJ59jLVwGS3j8YyaoEE8W5zudYuWUvasMi3D+NwLKn+jxc9dpjj69sQlDSfpJjD
IXZeUw==
-----END CERTIFICATE-----
